target datalayout = "e-m:e-p270:32:32-p271:32:32-p272:64:64-i64:64-i128:128-f80:128-n8:16:32:64-S128"
target triple = "x86_64-pc-linux-gnu"

%struct._object = type { %union.anon, ptr }
%union.anon = type { i64 }
%struct._ts = type { ptr, ptr, ptr, i64, %struct.anon.0, i32, i32, i32, i32, i32, i32, i32, i32, ptr, ptr, ptr, ptr, ptr, ptr, ptr, ptr, i32, ptr, i64, i64, ptr, i64, i32, ptr, ptr, ptr, i64, i64, ptr, ptr, ptr, %struct._err_stackitem, ptr, i64, ptr, ptr }
%struct.anon.0 = type { i32 }
%struct._err_stackitem = type { ptr, ptr }
%struct._PyLegacyEventHandler = type { %struct._object, ptr, i32 }
%struct.anon = type { i32, i32 }

@_Py_tss_tstate = external thread_local global ptr, align 8
@_Py_NoneStruct = external global %struct._object, align 8
@PyExc_SystemError = external global ptr, align 8
@.str.3 = private unnamed_addr constant [45 x i8] c"Missing frame when calling profile function.\00", align 1

; Function Attrs: alwaysinline nounwind uwtable
define internal i32 @_Py_IsImmortal(ptr noundef %0) #5 {
  %2 = alloca ptr, align 8
  store ptr %0, ptr %2, align 8, !tbaa !25
  %3 = load ptr, ptr %2, align 8, !tbaa !25
  %4 = getelementptr inbounds nuw %struct._object, ptr %3, i32 0, i32 0
  %5 = getelementptr inbounds nuw %struct.anon, ptr %4, i32 0, i32 0
  %6 = load i32, ptr %5, align 8, !tbaa !24
  %7 = icmp slt i32 %6, 0
  %8 = zext i1 %7 to i32
  ret i32 %8
}

; Function Attrs: alwaysinline nounwind uwtable
define internal void @Py_DECREF(ptr noundef %0) #5 {
  %2 = alloca ptr, align 8
  store ptr %0, ptr %2, align 8, !tbaa !25
  %3 = load ptr, ptr %2, align 8, !tbaa !25
  %4 = call i32 @_Py_IsImmortal(ptr noundef %3)
  %5 = icmp ne i32 %4, 0
  br i1 %5, label %6, label %7

6:                                                ; preds = %1
  br label %16

7:                                                ; preds = %1
  %8 = load ptr, ptr %2, align 8, !tbaa !25
  %9 = getelementptr inbounds nuw %struct._object, ptr %8, i32 0, i32 0
  %10 = getelementptr inbounds nuw %struct.anon, ptr %9, i32 0, i32 0
  %11 = load i32, ptr %10, align 8, !tbaa !24
  %12 = add i32 %11, -1
  store i32 %12, ptr %10, align 8, !tbaa !24
  %13 = icmp eq i32 %12, 0
  br i1 %13, label %14, label %16

14:                                               ; preds = %7
  %15 = load ptr, ptr %2, align 8, !tbaa !25
  call void @_Py_Dealloc(ptr noundef %15)
  br label %16

16:                                               ; preds = %6, %14, %7
  ret void
}

; Function Attrs: alwaysinline nounwind uwtable
define internal void @Py_INCREF(ptr noundef %0) #5 {
  %2 = alloca ptr, align 8
  %3 = alloca i32, align 4
  %4 = alloca i32, align 4
  store ptr %0, ptr %2, align 8, !tbaa !25
  call void @llvm.lifetime.start.p0(i64 4, ptr %3) #6
  %5 = load ptr, ptr %2, align 8, !tbaa !25
  %6 = getelementptr inbounds nuw %struct._object, ptr %5, i32 0, i32 0
  %7 = getelementptr inbounds nuw %struct.anon, ptr %6, i32 0, i32 0
  %8 = load i32, ptr %7, align 8, !tbaa !24
  store i32 %8, ptr %3, align 4, !tbaa !20
  %9 = load i32, ptr %3, align 4, !tbaa !20
  %10 = icmp slt i32 %9, 0
  br i1 %10, label %11, label %12

11:                                               ; preds = %1
  store i32 1, ptr %4, align 4
  br label %18

12:                                               ; preds = %1
  %13 = load i32, ptr %3, align 4, !tbaa !20
  %14 = add i32 %13, 1
  %15 = load ptr, ptr %2, align 8, !tbaa !25
  %16 = getelementptr inbounds nuw %struct._object, ptr %15, i32 0, i32 0
  %17 = getelementptr inbounds nuw %struct.anon, ptr %16, i32 0, i32 0
  store i32 %14, ptr %17, align 8, !tbaa !24
  store i32 0, ptr %4, align 4
  br label %18

18:                                               ; preds = %12, %11
  call void @llvm.lifetime.end.p0(i64 4, ptr %3) #6
  %19 = load i32, ptr %4, align 4
  switch i32 %19, label %21 [
    i32 0, label %20
    i32 1, label %20
  ]

20:                                               ; preds = %18, %18
  ret void

21:                                               ; preds = %18
  unreachable
}

; Function Attrs: inlinehint nounwind uwtable
define internal ptr @_PyThreadState_GET() #2 {
  %1 = call align 8 ptr @llvm.threadlocal.address.p0(ptr align 8 @_Py_tss_tstate)
  %2 = load ptr, ptr %1, align 8, !tbaa !26
  ret ptr %2
}

; Function Attrs: nounwind uwtable
define internal ptr @call_profile_func(ptr noundef %0, ptr noundef %1) #0 {
  %3 = alloca ptr, align 8
  %4 = alloca ptr, align 8
  %5 = alloca ptr, align 8
  %6 = alloca ptr, align 8
  %7 = alloca i32, align 4
  %8 = alloca ptr, align 8
  %9 = alloca i32, align 4
  store ptr %0, ptr %4, align 8, !tbaa !117
  store ptr %1, ptr %5, align 8, !tbaa !25
  call void @llvm.lifetime.start.p0(i64 8, ptr %6) #6
  %10 = call ptr @_PyThreadState_GET()
  store ptr %10, ptr %6, align 8, !tbaa !26
  %11 = load ptr, ptr %6, align 8, !tbaa !26
  %12 = getelementptr inbounds nuw %struct._ts, ptr %11, i32 0, i32 14
  %13 = load ptr, ptr %12, align 8, !tbaa !109
  %14 = icmp eq ptr %13, null
  br i1 %14, label %15, label %16

15:                                               ; preds = %2
  store ptr @_Py_NoneStruct, ptr %3, align 8
  store i32 1, ptr %7, align 4
  br label %43

16:                                               ; preds = %2
  call void @llvm.lifetime.start.p0(i64 8, ptr %8) #6
  %17 = call ptr @PyEval_GetFrame()
  store ptr %17, ptr %8, align 8, !tbaa !4
  %18 = load ptr, ptr %8, align 8, !tbaa !4
  %19 = icmp eq ptr %18, null
  br i1 %19, label %20, label %22

20:                                               ; preds = %16
  %21 = load ptr, ptr @PyExc_SystemError, align 8, !tbaa !25
  call void @PyErr_SetString(ptr noundef %21, ptr noundef @.str.3)
  store ptr null, ptr %3, align 8
  store i32 1, ptr %7, align 4
  br label %42

22:                                               ; preds = %16
  %23 = load ptr, ptr %8, align 8, !tbaa !4
  call void @Py_INCREF(ptr noundef %23)
  call void @llvm.lifetime.start.p0(i64 4, ptr %9) #6
  %24 = load ptr, ptr %6, align 8, !tbaa !26
  %25 = getelementptr inbounds nuw %struct._ts, ptr %24, i32 0, i32 14
  %26 = load ptr, ptr %25, align 8, !tbaa !109
  %27 = load ptr, ptr %6, align 8, !tbaa !26
  %28 = getelementptr inbounds nuw %struct._ts, ptr %27, i32 0, i32 16
  %29 = load ptr, ptr %28, align 8, !tbaa !110
  %30 = load ptr, ptr %8, align 8, !tbaa !4
  %31 = load ptr, ptr %4, align 8, !tbaa !117
  %32 = getelementptr inbounds nuw %struct._PyLegacyEventHandler, ptr %31, i32 0, i32 2
  %33 = load i32, ptr %32, align 8, !tbaa !121
  %34 = load ptr, ptr %5, align 8, !tbaa !25
  %35 = call i32 %26(ptr noundef %29, ptr noundef %30, i32 noundef %33, ptr noundef %34)
  store i32 %35, ptr %9, align 4, !tbaa !20
  %36 = load ptr, ptr %8, align 8, !tbaa !4
  call void @Py_DECREF(ptr noundef %36)
  %37 = load i32, ptr %9, align 4, !tbaa !20
  %38 = icmp ne i32 %37, 0
  br i1 %38, label %39, label %40

39:                                               ; preds = %22
  store ptr null, ptr %3, align 8
  store i32 1, ptr %7, align 4
  br label %41

40:                                               ; preds = %22
  store ptr @_Py_NoneStruct, ptr %3, align 8
  store i32 1, ptr %7, align 4
  br label %41

41:                                               ; preds = %40, %39
  call void @llvm.lifetime.end.p0(i64 4, ptr %9) #6
  br label %42

42:                                               ; preds = %41, %20
  call void @llvm.lifetime.end.p0(i64 8, ptr %8) #6
  br label %43

43:                                               ; preds = %42, %15
  call void @llvm.lifetime.end.p0(i64 8, ptr %6) #6
  %44 = load ptr, ptr %3, align 8
  ret ptr %44
}

; Function Attrs: nounwind uwtable
define internal ptr @sys_profile_throw(ptr noundef %0, ptr noundef %1, i64 noundef %2, ptr noundef %3) #0 {
  %5 = alloca ptr, align 8
  %6 = alloca ptr, align 8
  %7 = alloca i64, align 8
  %8 = alloca ptr, align 8
  store ptr %0, ptr %5, align 8, !tbaa !117
  store ptr %1, ptr %6, align 8, !tbaa !31
  store i64 %2, ptr %7, align 8, !tbaa !29
  store ptr %3, ptr %8, align 8, !tbaa !25
  %9 = load ptr, ptr %5, align 8, !tbaa !117
  %10 = call ptr @call_profile_func(ptr noundef %9, ptr noundef @_Py_NoneStruct)
  ret ptr %10
}